; ModuleID = '44/1176.c'
source_filename = "44/1176.c"
target datalayout = "e-m:e-p270:32:32-p271:32:32-p272:64:64-i64:64-f80:128-n8:16:32:64-S128"
target triple = "x86_64-pc-linux-gnu"

@.str = private unnamed_addr constant [3 x i8] c"%d\00", align 1
@.str.1 = private unnamed_addr constant [4 x i8] c"%d\0A\00", align 1

; Function Attrs: noinline nounwind uwtable
define dso_local i32 @main() #0 {
  %1 = alloca i32, align 4
  %2 = alloca i32, align 4
  %3 = alloca i32, align 4
  %4 = alloca i32, align 4
  %5 = alloca i32, align 4
  %6 = alloca i32, align 4
  %7 = alloca i32, align 4
  %8 = alloca i32, align 4
  %9 = alloca i32, align 4
  %10 = alloca [8 x i32], align 16
  store i32 0, i32* %1, align 4
  store i32 0, i32* %6, align 4
  br label %11

11:                                               ; preds = %20, %0
  %12 = load i32, i32* %6, align 4
  %13 = icmp slt i32 %12, 6
  br i1 %13, label %14, label %23

14:                                               ; preds = %11
  %15 = call i32 (i8*, ...) @__isoc99_scanf(i8* getelementptr inbounds ([3 x i8], [3 x i8]* @.str, i64 0, i64 0), i32* %2)
  %16 = load i32, i32* %2, align 4
  %17 = call i32 @reverse(i32 %16)
  store i32 %17, i32* %9, align 4
  %18 = load i32, i32* %9, align 4
  %19 = call i32 (i8*, ...) @printf(i8* getelementptr inbounds ([4 x i8], [4 x i8]* @.str.1, i64 0, i64 0), i32 %18)
  br label %20

20:                                               ; preds = %14
  %21 = load i32, i32* %6, align 4
  %22 = add nsw i32 %21, 1
  store i32 %22, i32* %6, align 4
  br label %11

23:                                               ; preds = %11
  %24 = call i32 @getchar()
  %25 = call i32 @getchar()
  %26 = call i32 @getchar()
  %27 = call i32 @getchar()
  %28 = load i32, i32* %1, align 4
  ret i32 %28
}

declare dso_local i32 @__isoc99_scanf(i8*, ...) #1

; Function Attrs: noinline nounwind uwtable
define dso_local i32 @reverse(i32 %0) #0 {
  %2 = alloca i32, align 4
  %3 = alloca i32, align 4
  %4 = alloca i32, align 4
  %5 = alloca i32, align 4
  %6 = alloca i32, align 4
  %7 = alloca i32, align 4
  %8 = alloca i32, align 4
  %9 = alloca i32, align 4
  %10 = alloca i32, align 4
  %11 = alloca [8 x i32], align 16
  %12 = alloca i32, align 4
  store i32 %0, i32* %2, align 4
  %13 = load i32, i32* %2, align 4
  store i32 %13, i32* %4, align 4
  store i32 1, i32* %5, align 4
  store i32 1, i32* %6, align 4
  store i32 0, i32* %9, align 4
  store i32 0, i32* %8, align 4
  store i32 0, i32* %12, align 4
  br label %14

14:                                               ; preds = %42, %1
  %15 = load i32, i32* %4, align 4
  %16 = icmp ne i32 %15, 0
  br i1 %16, label %17, label %45

17:                                               ; preds = %14
  %18 = load i32, i32* %4, align 4
  %19 = sdiv i32 %18, 10
  store i32 %19, i32* %4, align 4
  %20 = load i32, i32* %5, align 4
  %21 = mul nsw i32 %20, 10
  store i32 %21, i32* %5, align 4
  %22 = load i32, i32* %2, align 4
  %23 = load i32, i32* %4, align 4
  %24 = load i32, i32* %5, align 4
  %25 = mul nsw i32 %23, %24
  %26 = sub nsw i32 %22, %25
  %27 = load i32, i32* %6, align 4
  %28 = sdiv i32 %26, %27
  %29 = load i32, i32* %12, align 4
  %30 = sext i32 %29 to i64
  %31 = getelementptr inbounds [8 x i32], [8 x i32]* %11, i64 0, i64 %30
  store i32 %28, i32* %31, align 4
  %32 = load i32, i32* %6, align 4
  %33 = mul nsw i32 %32, 10
  store i32 %33, i32* %6, align 4
  %34 = load i32, i32* %8, align 4
  %35 = mul nsw i32 10, %34
  store i32 %35, i32* %9, align 4
  %36 = load i32, i32* %9, align 4
  %37 = load i32, i32* %12, align 4
  %38 = sext i32 %37 to i64
  %39 = getelementptr inbounds [8 x i32], [8 x i32]* %11, i64 0, i64 %38
  %40 = load i32, i32* %39, align 4
  %41 = add nsw i32 %36, %40
  store i32 %41, i32* %8, align 4
  br label %42

42:                                               ; preds = %17
  %43 = load i32, i32* %12, align 4
  %44 = add nsw i32 %43, 1
  store i32 %44, i32* %12, align 4
  br label %14

45:                                               ; preds = %14
  %46 = load i32, i32* %8, align 4
  store i32 %46, i32* %2, align 4
  %47 = load i32, i32* %2, align 4
  ret i32 %47
}

declare dso_local i32 @printf(i8*, ...) #1

declare dso_local i32 @getchar() #1


!llvm.module.flags = !{!0}
!llvm.ident = !{!1}

!0 = !{i32 1, !"wchar_size", i32 4}
!1 = !{!"clang version 10.0.0-4ubuntu1 "}
